; Function Attrs: nounwind uwtable
define noalias nonnull ptr @l_Lean_Elab_Tactic_BVDecide_Frontend_Normalize_bool__and___lambda__4(ptr noundef %0, ptr noundef %1, ptr readnone captures(none) %2, ptr readnone captures(none) %3, ptr readnone captures(none) %4, ptr readnone captures(none) %5, ptr noundef %6) local_unnamed_addr #0 {
  %8 = tail call zeroext i8 @lean_expr_eqv(ptr noundef %1, ptr noundef %0) #5
  %9 = icmp eq i8 %8, 0
  br i1 %9, label %10, label %26

10:                                               ; preds = %7
  %11 = ptrtoint ptr %1 to i64
  %12 = and i64 %11, 1
  %.not = icmp eq i64 %12, 0
  br i1 %.not, label %13, label %lean_dec.exit

13:                                               ; preds = %10
  %14 = load i32, ptr %1, align 4, !tbaa !8
  %15 = icmp sgt i32 %14, 1
  br i1 %15, label %16, label %18, !prof !11

16:                                               ; preds = %13
  %17 = add nsw i32 %14, -1
  store i32 %17, ptr %1, align 4, !tbaa !8
  br label %lean_dec.exit

18:                                               ; preds = %13
  %.not.i = icmp eq i32 %14, 0
  br i1 %.not.i, label %lean_dec.exit, label %19

19:                                               ; preds = %18
  tail call void @lean_dec_ref_cold(ptr noundef nonnull %1) #5
  br label %lean_dec.exit

lean_dec.exit:                                    ; preds = %19, %18, %16, %10
  tail call void @lean_inc_heartbeat() #5
  %20 = tail call noalias ptr @mi_malloc_small(i64 noundef 24) #5
  %21 = icmp eq ptr %20, null
  br i1 %21, label %22, label %lean_alloc_ctor.exit

22:                                               ; preds = %lean_dec.exit
  tail call void @lean_internal_panic_out_of_memory() #6
  unreachable

lean_alloc_ctor.exit:                             ; preds = %lean_dec.exit
  %23 = getelementptr inbounds nuw i8, ptr %20, i64 4
  store i32 1, ptr %20, align 4, !tbaa !8
  store i32 131096, ptr %23, align 4
  %24 = getelementptr inbounds nuw i8, ptr %20, i64 8
  store ptr inttoptr (i64 1 to ptr), ptr %24, align 8, !tbaa !4
  %25 = getelementptr inbounds nuw i8, ptr %20, i64 16
  store ptr %6, ptr %25, align 8, !tbaa !4
  br label %28

26:                                               ; preds = %7
  %27 = tail call ptr @l_Lean_Elab_Tactic_BVDecide_Frontend_Normalize_bool__and___lambda__3(ptr noundef %1, ptr nonnull poison, ptr poison, ptr poison, ptr poison, ptr poison, ptr noundef %6)
  br label %28

28:                                               ; preds = %26, %lean_alloc_ctor.exit
  %.0 = phi ptr [ %20, %lean_alloc_ctor.exit ], [ %27, %26 ]
  ret ptr %.0
}